target datalayout = "e-m:e-p270:32:32-p271:32:32-p272:64:64-i64:64-i128:128-f80:128-n8:16:32:64-S128"
target triple = "x86_64-pc-linux-gnu"

; Function Attrs: nounwind uwtable
define ptr @ff_nal_unit_extract_rbsp(ptr noundef %0, i32 noundef %1, ptr noundef %2, i32 noundef %3) #0 {
  %5 = alloca ptr, align 8
  %6 = alloca ptr, align 8
  %7 = alloca i32, align 4
  %8 = alloca ptr, align 8
  %9 = alloca i32, align 4
  %10 = alloca ptr, align 8
  %11 = alloca i32, align 4
  %12 = alloca i32, align 4
  %13 = alloca i32, align 4
  store ptr %0, ptr %6, align 8, !tbaa !4
  store i32 %1, ptr %7, align 4, !tbaa !12
  store ptr %2, ptr %8, align 8, !tbaa !36
  store i32 %3, ptr %9, align 4, !tbaa !12
  call void @llvm.lifetime.start.p0(i64 8, ptr %10) #5
  call void @llvm.lifetime.start.p0(i64 4, ptr %11) #5
  call void @llvm.lifetime.start.p0(i64 4, ptr %12) #5
  %14 = load i32, ptr %7, align 4, !tbaa !12
  %15 = add i32 %14, 64
  %16 = zext i32 %15 to i64
  %17 = call noalias ptr @av_malloc(i64 noundef %16)
  store ptr %17, ptr %10, align 8, !tbaa !4
  %18 = load ptr, ptr %10, align 8, !tbaa !4
  %19 = icmp ne ptr %18, null
  br i1 %19, label %21, label %20

20:                                               ; preds = %4
  store ptr null, ptr %5, align 8
  store i32 1, ptr %13, align 4
  br label %137

21:                                               ; preds = %4
  store i32 0, ptr %12, align 4, !tbaa !12
  store i32 0, ptr %11, align 4, !tbaa !12
  br label %22

22:                                               ; preds = %32, %21
  %23 = load i32, ptr %11, align 4, !tbaa !12
  %24 = load i32, ptr %9, align 4, !tbaa !12
  %25 = icmp ult i32 %23, %24
  br i1 %25, label %26, label %30

26:                                               ; preds = %22
  %27 = load i32, ptr %11, align 4, !tbaa !12
  %28 = load i32, ptr %7, align 4, !tbaa !12
  %29 = icmp ult i32 %27, %28
  br label %30

30:                                               ; preds = %26, %22
  %31 = phi i1 [ false, %22 ], [ %29, %26 ]
  br i1 %31, label %32, label %44

32:                                               ; preds = %30
  %33 = load ptr, ptr %6, align 8, !tbaa !4
  %34 = load i32, ptr %11, align 4, !tbaa !12
  %35 = add i32 %34, 1
  store i32 %35, ptr %11, align 4, !tbaa !12
  %36 = zext i32 %34 to i64
  %37 = getelementptr inbounds nuw i8, ptr %33, i64 %36
  %38 = load i8, ptr %37, align 1, !tbaa !9
  %39 = load ptr, ptr %10, align 8, !tbaa !4
  %40 = load i32, ptr %12, align 4, !tbaa !12
  %41 = add i32 %40, 1
  store i32 %41, ptr %12, align 4, !tbaa !12
  %42 = zext i32 %40 to i64
  %43 = getelementptr inbounds nuw i8, ptr %39, i64 %42
  store i8 %38, ptr %43, align 1, !tbaa !9
  br label %22, !llvm.loop !39

44:                                               ; preds = %30
  br label %45

45:                                               ; preds = %111, %44
  %46 = load i32, ptr %11, align 4, !tbaa !12
  %47 = add i32 %46, 2
  %48 = load i32, ptr %7, align 4, !tbaa !12
  %49 = icmp ult i32 %47, %48
  br i1 %49, label %50, label %112

50:                                               ; preds = %45
  %51 = load ptr, ptr %6, align 8, !tbaa !4
  %52 = load i32, ptr %11, align 4, !tbaa !12
  %53 = zext i32 %52 to i64
  %54 = getelementptr inbounds nuw i8, ptr %51, i64 %53
  %55 = load i8, ptr %54, align 1, !tbaa !9
  %56 = icmp ne i8 %55, 0
  br i1 %56, label %99, label %57

57:                                               ; preds = %50
  %58 = load ptr, ptr %6, align 8, !tbaa !4
  %59 = load i32, ptr %11, align 4, !tbaa !12
  %60 = add i32 %59, 1
  %61 = zext i32 %60 to i64
  %62 = getelementptr inbounds nuw i8, ptr %58, i64 %61
  %63 = load i8, ptr %62, align 1, !tbaa !9
  %64 = icmp ne i8 %63, 0
  br i1 %64, label %99, label %65

65:                                               ; preds = %57
  %66 = load ptr, ptr %6, align 8, !tbaa !4
  %67 = load i32, ptr %11, align 4, !tbaa !12
  %68 = add i32 %67, 2
  %69 = zext i32 %68 to i64
  %70 = getelementptr inbounds nuw i8, ptr %66, i64 %69
  %71 = load i8, ptr %70, align 1, !tbaa !9
  %72 = zext i8 %71 to i32
  %73 = icmp eq i32 %72, 3
  br i1 %73, label %74, label %99

74:                                               ; preds = %65
  %75 = load ptr, ptr %6, align 8, !tbaa !4
  %76 = load i32, ptr %11, align 4, !tbaa !12
  %77 = add i32 %76, 1
  store i32 %77, ptr %11, align 4, !tbaa !12
  %78 = zext i32 %76 to i64
  %79 = getelementptr inbounds nuw i8, ptr %75, i64 %78
  %80 = load i8, ptr %79, align 1, !tbaa !9
  %81 = load ptr, ptr %10, align 8, !tbaa !4
  %82 = load i32, ptr %12, align 4, !tbaa !12
  %83 = add i32 %82, 1
  store i32 %83, ptr %12, align 4, !tbaa !12
  %84 = zext i32 %82 to i64
  %85 = getelementptr inbounds nuw i8, ptr %81, i64 %84
  store i8 %80, ptr %85, align 1, !tbaa !9
  %86 = load ptr, ptr %6, align 8, !tbaa !4
  %87 = load i32, ptr %11, align 4, !tbaa !12
  %88 = add i32 %87, 1
  store i32 %88, ptr %11, align 4, !tbaa !12
  %89 = zext i32 %87 to i64
  %90 = getelementptr inbounds nuw i8, ptr %86, i64 %89
  %91 = load i8, ptr %90, align 1, !tbaa !9
  %92 = load ptr, ptr %10, align 8, !tbaa !4
  %93 = load i32, ptr %12, align 4, !tbaa !12
  %94 = add i32 %93, 1
  store i32 %94, ptr %12, align 4, !tbaa !12
  %95 = zext i32 %93 to i64
  %96 = getelementptr inbounds nuw i8, ptr %92, i64 %95
  store i8 %91, ptr %96, align 1, !tbaa !9
  %97 = load i32, ptr %11, align 4, !tbaa !12
  %98 = add i32 %97, 1
  store i32 %98, ptr %11, align 4, !tbaa !12
  br label %111

99:                                               ; preds = %65, %57, %50
  %100 = load ptr, ptr %6, align 8, !tbaa !4
  %101 = load i32, ptr %11, align 4, !tbaa !12
  %102 = add i32 %101, 1
  store i32 %102, ptr %11, align 4, !tbaa !12
  %103 = zext i32 %101 to i64
  %104 = getelementptr inbounds nuw i8, ptr %100, i64 %103
  %105 = load i8, ptr %104, align 1, !tbaa !9
  %106 = load ptr, ptr %10, align 8, !tbaa !4
  %107 = load i32, ptr %12, align 4, !tbaa !12
  %108 = add i32 %107, 1
  store i32 %108, ptr %12, align 4, !tbaa !12
  %109 = zext i32 %107 to i64
  %110 = getelementptr inbounds nuw i8, ptr %106, i64 %109
  store i8 %105, ptr %110, align 1, !tbaa !9
  br label %111

111:                                              ; preds = %99, %74
  br label %45, !llvm.loop !40

112:                                              ; preds = %45
  br label %113

113:                                              ; preds = %117, %112
  %114 = load i32, ptr %11, align 4, !tbaa !12
  %115 = load i32, ptr %7, align 4, !tbaa !12
  %116 = icmp ult i32 %114, %115
  br i1 %116, label %117, label %129

117:                                              ; preds = %113
  %118 = load ptr, ptr %6, align 8, !tbaa !4
  %119 = load i32, ptr %11, align 4, !tbaa !12
  %120 = add i32 %119, 1
  store i32 %120, ptr %11, align 4, !tbaa !12
  %121 = zext i32 %119 to i64
  %122 = getelementptr inbounds nuw i8, ptr %118, i64 %121
  %123 = load i8, ptr %122, align 1, !tbaa !9
  %124 = load ptr, ptr %10, align 8, !tbaa !4
  %125 = load i32, ptr %12, align 4, !tbaa !12
  %126 = add i32 %125, 1
  store i32 %126, ptr %12, align 4, !tbaa !12
  %127 = zext i32 %125 to i64
  %128 = getelementptr inbounds nuw i8, ptr %124, i64 %127
  store i8 %123, ptr %128, align 1, !tbaa !9
  br label %113, !llvm.loop !41

129:                                              ; preds = %113
  %130 = load ptr, ptr %10, align 8, !tbaa !4
  %131 = load i32, ptr %12, align 4, !tbaa !12
  %132 = zext i32 %131 to i64
  %133 = getelementptr inbounds nuw i8, ptr %130, i64 %132
  call void @llvm.memset.p0.i64(ptr align 1 %133, i8 0, i64 64, i1 false)
  %134 = load i32, ptr %12, align 4, !tbaa !12
  %135 = load ptr, ptr %8, align 8, !tbaa !36
  store i32 %134, ptr %135, align 4, !tbaa !12
  %136 = load ptr, ptr %10, align 8, !tbaa !4
  store ptr %136, ptr %5, align 8
  store i32 1, ptr %13, align 4
  br label %137

137:                                              ; preds = %129, %20
  call void @llvm.lifetime.end.p0(i64 4, ptr %12) #5
  call void @llvm.lifetime.end.p0(i64 4, ptr %11) #5
  call void @llvm.lifetime.end.p0(i64 8, ptr %10) #5
  %138 = load ptr, ptr %5, align 8
  ret ptr %138
}