; Function Attrs: nounwind uwtable
define noalias ptr @ff_nal_unit_extract_rbsp(ptr noundef readonly captures(none) %0, i32 noundef %1, ptr noundef writeonly captures(none) %2, i32 noundef %3) local_unnamed_addr #2 {
  %5 = add i32 %1, 64
  %6 = zext i32 %5 to i64
  %7 = tail call noalias ptr @av_malloc(i64 noundef %6) #8
  %.not = icmp eq ptr %7, null
  br i1 %.not, label %48, label %.preheader53

.preheader53:                                     ; preds = %4
  %invariant.umin = tail call i32 @llvm.umin.i32(i32 %3, i32 %1)
  %.not66 = icmp eq i32 %invariant.umin, 0
  br i1 %.not66, label %.preheader52, label %.lr.ph.preheader

.lr.ph.preheader:                                 ; preds = %.preheader53
  %8 = tail call i32 @llvm.umin.i32(i32 %3, i32 %1)
  %umin = zext i32 %8 to i64
  tail call void @llvm.memcpy.p0.p0.i64(ptr nonnull align 1 %7, ptr align 1 %0, i64 %umin, i1 false), !tbaa !4
  br label %.preheader52

.preheader52:                                     ; preds = %.lr.ph.preheader, %.preheader53
  %9 = add i32 %invariant.umin, 2
  %10 = icmp ult i32 %9, %1
  br i1 %10, label %.lr.ph59, label %.preheader

.preheader:                                       ; preds = %38, %.preheader52
  %.143.lcssa = phi i32 [ %invariant.umin, %.preheader52 ], [ %.244, %38 ]
  %.1.lcssa = phi i32 [ %invariant.umin, %.preheader52 ], [ %.2, %38 ]
  %11 = icmp ult i32 %.143.lcssa, %1
  br i1 %11, label %.lr.ph64.preheader, label %._crit_edge

.lr.ph64.preheader:                               ; preds = %.preheader
  %12 = zext i32 %.143.lcssa to i64
  %wide.trip.count73 = zext i32 %1 to i64
  br label %.lr.ph64

.lr.ph59:                                         ; preds = %.preheader52, %38
  %13 = phi i32 [ %39, %38 ], [ %9, %.preheader52 ]
  %.158 = phi i32 [ %.2, %38 ], [ %invariant.umin, %.preheader52 ]
  %.14357 = phi i32 [ %.244, %38 ], [ %invariant.umin, %.preheader52 ]
  %14 = zext i32 %.14357 to i64
  %15 = getelementptr inbounds nuw i8, ptr %0, i64 %14
  %16 = load i8, ptr %15, align 1, !tbaa !4
  %.not50 = icmp eq i8 %16, 0
  %17 = add i32 %.14357, 1
  br i1 %.not50, label %18, label %.lr.ph59._crit_edge

18:                                               ; preds = %.lr.ph59
  %19 = zext i32 %17 to i64
  %20 = getelementptr inbounds nuw i8, ptr %0, i64 %19
  %21 = load i8, ptr %20, align 1, !tbaa !4
  %.not51 = icmp eq i8 %21, 0
  br i1 %.not51, label %22, label %.lr.ph59._crit_edge

22:                                               ; preds = %18
  %23 = zext i32 %13 to i64
  %24 = getelementptr inbounds nuw i8, ptr %0, i64 %23
  %25 = load i8, ptr %24, align 1, !tbaa !4
  %26 = icmp eq i8 %25, 3
  br i1 %26, label %27, label %.lr.ph59._crit_edge

27:                                               ; preds = %22
  %28 = add i32 %.158, 1
  %29 = zext i32 %.158 to i64
  %30 = getelementptr inbounds nuw i8, ptr %7, i64 %29
  store i8 0, ptr %30, align 1, !tbaa !4
  %31 = add i32 %.158, 2
  %32 = zext i32 %28 to i64
  %33 = getelementptr inbounds nuw i8, ptr %7, i64 %32
  store i8 0, ptr %33, align 1, !tbaa !4
  %34 = add i32 %.14357, 3
  br label %38

.lr.ph59._crit_edge:                              ; preds = %.lr.ph59, %22, %18
  %35 = add i32 %.158, 1
  %36 = zext i32 %.158 to i64
  %37 = getelementptr inbounds nuw i8, ptr %7, i64 %36
  store i8 %16, ptr %37, align 1, !tbaa !4
  br label %38

38:                                               ; preds = %.lr.ph59._crit_edge, %27
  %.244 = phi i32 [ %17, %.lr.ph59._crit_edge ], [ %34, %27 ]
  %.2 = phi i32 [ %35, %.lr.ph59._crit_edge ], [ %31, %27 ]
  %39 = add i32 %.244, 2
  %40 = icmp ult i32 %39, %1
  br i1 %40, label %.lr.ph59, label %.preheader, !llvm.loop !26

.lr.ph64:                                         ; preds = %.lr.ph64.preheader, %.lr.ph64
  %indvars.iv = phi i64 [ %12, %.lr.ph64.preheader ], [ %indvars.iv.next, %.lr.ph64 ]
  %.363 = phi i32 [ %.1.lcssa, %.lr.ph64.preheader ], [ %43, %.lr.ph64 ]
  %indvars.iv.next = add nuw nsw i64 %indvars.iv, 1
  %41 = getelementptr inbounds nuw i8, ptr %0, i64 %indvars.iv
  %42 = load i8, ptr %41, align 1, !tbaa !4
  %43 = add i32 %.363, 1
  %44 = zext i32 %.363 to i64
  %45 = getelementptr inbounds nuw i8, ptr %7, i64 %44
  store i8 %42, ptr %45, align 1, !tbaa !4
  %exitcond.not = icmp eq i64 %indvars.iv.next, %wide.trip.count73
  br i1 %exitcond.not, label %._crit_edge, label %.lr.ph64, !llvm.loop !27

._crit_edge:                                      ; preds = %.lr.ph64, %.preheader
  %.3.lcssa = phi i32 [ %.1.lcssa, %.preheader ], [ %43, %.lr.ph64 ]
  %46 = zext i32 %.3.lcssa to i64
  %47 = getelementptr inbounds nuw i8, ptr %7, i64 %46
  tail call void @llvm.memset.p0.i64(ptr noundef nonnull align 1 dereferenceable(64) %47, i8 0, i64 64, i1 false)
  store i32 %.3.lcssa, ptr %2, align 4, !tbaa !18
  br label %48

48:                                               ; preds = %4, %._crit_edge
  ret ptr %7
}